target datalayout = "e-m:e-p270:32:32-p271:32:32-p272:64:64-i64:64-i128:128-f80:128-n8:16:32:64-S128"
target triple = "x86_64-pc-linux-gnu"

%"class.icu_77::number::Notation" = type { i32, %"union.icu_77::number::Notation::NotationUnion" }
%"union.icu_77::number::Notation::NotationUnion" = type { %"struct.icu_77::number::Notation::NotationUnion::ScientificSettings" }
%"struct.icu_77::number::Notation::NotationUnion::ScientificSettings" = type { i8, i8, i16, i32 }
%"class.icu_77::MeasureUnit" = type <{ %"class.icu_77::UObject", ptr, i16, i8, [5 x i8] }>
%"class.icu_77::UObject" = type { ptr }
%"class.icu_77::number::Precision" = type <{ i32, [4 x i8], %"union.icu_77::number::Precision::PrecisionUnion", i32, [4 x i8] }>
%"union.icu_77::number::Precision::PrecisionUnion" = type { %"struct.icu_77::number::Precision::PrecisionUnion::IncrementSettings" }
%"struct.icu_77::number::Precision::PrecisionUnion::IncrementSettings" = type { i64, i16, i16 }
%"struct.icu_77::number::impl::MacroProps" = type { [4 x i8], %"class.icu_77::number::Notation", %"class.icu_77::MeasureUnit", %"class.icu_77::MeasureUnit", %"class.icu_77::number::Precision", i32, %"class.icu_77::number::impl::Grouper", %"class.icu_77::number::impl::Padder", %"class.icu_77::number::IntegerWidth", %"class.icu_77::number::impl::SymbolsWrapper", i32, i32, i8, i32, %"class.icu_77::number::Scale", %"class.icu_77::number::impl::StringProp", %"class.icu_77::number::impl::StringProp", ptr, ptr, i32, [4 x i8], %"class.icu_77::Locale" }
%"class.icu_77::number::impl::Grouper" = type { i16, i16, i16, i32 }
%"class.icu_77::number::impl::Padder" = type { i32, %union.anon }
%union.anon = type { %struct.anon.1 }
%struct.anon.1 = type { i32, i32 }
%"class.icu_77::number::IntegerWidth" = type <{ %union.anon.2, i8, [3 x i8] }>
%union.anon.2 = type { i32, [4 x i8] }
%"class.icu_77::number::impl::SymbolsWrapper" = type { i32, %union.anon.4 }
%union.anon.4 = type { ptr }
%"class.icu_77::number::Scale" = type <{ i32, [4 x i8], ptr, i32, [4 x i8] }>
%"class.icu_77::number::impl::StringProp" = type { ptr, i16, i32 }
%"class.icu_77::Locale" = type <{ %"class.icu_77::UObject", [12 x i8], [6 x i8], [4 x i8], [2 x i8], i32, [4 x i8], ptr, [157 x i8], [3 x i8], ptr, i8, [7 x i8] }>

; Function Attrs: mustprogress uwtable
define void @_ZN6icu_776number4impl17blueprint_helpers16parseIntegerStemERKNS_13StringSegmentERNS1_10MacroPropsER10UErrorCode(ptr noundef nonnull align 8 dereferenceable(17) %0, ptr noundef nonnull align 8 dereferenceable(472) %1, ptr noundef nonnull align 4 dereferenceable(4) %2) #1 {
  %4 = alloca ptr, align 8
  %5 = alloca ptr, align 8
  %6 = alloca ptr, align 8
  %7 = alloca i32, align 4
  %8 = alloca i32, align 4
  %9 = alloca %"class.icu_77::number::IntegerWidth", align 4
  %10 = alloca { i64, i8 }, align 8
  store ptr %0, ptr %4, align 8, !tbaa !132
  store ptr %1, ptr %5, align 8, !tbaa !75
  store ptr %2, ptr %6, align 8, !tbaa !22
  call void @llvm.lifetime.start.p0(i64 4, ptr %7) #14
  store i32 1, ptr %7, align 4, !tbaa !14
  br label %11

11:                                               ; preds = %26, %3
  %12 = load i32, ptr %7, align 4, !tbaa !14
  %13 = load ptr, ptr %4, align 8, !tbaa !132
  %14 = call noundef i32 @_ZNK6icu_7713StringSegment6lengthEv(ptr noundef nonnull align 8 dereferenceable(17) %13)
  %15 = icmp slt i32 %12, %14
  br i1 %15, label %16, label %29

16:                                               ; preds = %11
  %17 = load ptr, ptr %4, align 8, !tbaa !132
  %18 = load i32, ptr %7, align 4, !tbaa !14
  %19 = call noundef zeroext i16 @_ZNK6icu_7713StringSegment6charAtEi(ptr noundef nonnull align 8 dereferenceable(17) %17, i32 noundef %18)
  %20 = zext i16 %19 to i32
  %21 = icmp ne i32 %20, 48
  br i1 %21, label %22, label %25

22:                                               ; preds = %16
  %23 = load i32, ptr %7, align 4, !tbaa !14
  %24 = add nsw i32 %23, -1
  store i32 %24, ptr %7, align 4, !tbaa !14
  br label %29

25:                                               ; preds = %16
  br label %26

26:                                               ; preds = %25
  %27 = load i32, ptr %7, align 4, !tbaa !14
  %28 = add nsw i32 %27, 1
  store i32 %28, ptr %7, align 4, !tbaa !14
  br label %11, !llvm.loop !141

29:                                               ; preds = %22, %11
  %30 = load i32, ptr %7, align 4, !tbaa !14
  %31 = load ptr, ptr %4, align 8, !tbaa !132
  %32 = call noundef i32 @_ZNK6icu_7713StringSegment6lengthEv(ptr noundef nonnull align 8 dereferenceable(17) %31)
  %33 = icmp slt i32 %30, %32
  br i1 %33, label %34, label %36

34:                                               ; preds = %29
  %35 = load ptr, ptr %6, align 8, !tbaa !22
  store i32 65811, ptr %35, align 4, !tbaa !15
  store i32 1, ptr %8, align 4
  br label %41

36:                                               ; preds = %29
  call void @llvm.lifetime.start.p0(i64 12, ptr %9) #14
  %37 = load i32, ptr %7, align 4, !tbaa !14
  %38 = call { i64, i8 } @_ZN6icu_776number12IntegerWidth10zeroFillToEi(i32 noundef %37)
  store { i64, i8 } %38, ptr %10, align 8
  call void @llvm.memcpy.p0.p0.i64(ptr align 4 %9, ptr align 8 %10, i64 9, i1 false)
  %39 = load ptr, ptr %5, align 8, !tbaa !75
  %40 = getelementptr inbounds nuw %"struct.icu_77::number::impl::MacroProps", ptr %39, i32 0, i32 8
  call void @llvm.memcpy.p0.p0.i64(ptr align 4 %40, ptr align 4 %9, i64 9, i1 false)
  call void @llvm.lifetime.end.p0(i64 12, ptr %9) #14
  store i32 0, ptr %8, align 4
  br label %41

41:                                               ; preds = %36, %34
  call void @llvm.lifetime.end.p0(i64 4, ptr %7) #14
  %42 = load i32, ptr %8, align 4
  switch i32 %42, label %44 [
    i32 0, label %43
    i32 1, label %43
  ]

43:                                               ; preds = %41, %41
  ret void

44:                                               ; preds = %41
  unreachable
}