; Function Attrs: mustprogress uwtable
define void @_ZN6icu_776number4impl17blueprint_helpers16parseIntegerStemERKNS_13StringSegmentERNS1_10MacroPropsER10UErrorCode(ptr noundef nonnull align 8 dereferenceable(17) %0, ptr noundef nonnull writeonly align 8 captures(none) dereferenceable(472) %1, ptr noundef nonnull writeonly align 4 captures(none) dereferenceable(4) %2) local_unnamed_addr #1 {
  %4 = tail call noundef i32 @_ZNK6icu_7713StringSegment6lengthEv(ptr noundef nonnull align 8 dereferenceable(17) %0)
  %5 = icmp sgt i32 %4, 1
  br i1 %5, label %.lr.ph, label %.loopexit

.lr.ph:                                           ; preds = %3, %9
  %.012 = phi i32 [ %10, %9 ], [ 1, %3 ]
  %6 = tail call noundef zeroext i16 @_ZNK6icu_7713StringSegment6charAtEi(ptr noundef nonnull align 8 dereferenceable(17) %0, i32 noundef %.012)
  %.not = icmp eq i16 %6, 48
  br i1 %.not, label %9, label %7

7:                                                ; preds = %.lr.ph
  %8 = add nsw i32 %.012, -1
  br label %.loopexit

9:                                                ; preds = %.lr.ph
  %10 = add nuw nsw i32 %.012, 1
  %11 = tail call noundef i32 @_ZNK6icu_7713StringSegment6lengthEv(ptr noundef nonnull align 8 dereferenceable(17) %0)
  %12 = icmp slt i32 %10, %11
  br i1 %12, label %.lr.ph, label %.loopexit, !llvm.loop !92

.loopexit:                                        ; preds = %9, %3, %7
  %.1 = phi i32 [ %8, %7 ], [ 1, %3 ], [ %10, %9 ]
  %13 = tail call noundef i32 @_ZNK6icu_7713StringSegment6lengthEv(ptr noundef nonnull align 8 dereferenceable(17) %0)
  %14 = icmp slt i32 %.1, %13
  br i1 %14, label %15, label %16

15:                                               ; preds = %.loopexit
  store i32 65811, ptr %2, align 4, !tbaa !13
  br label %19

16:                                               ; preds = %.loopexit
  %17 = tail call { i64, i8 } @_ZN6icu_776number12IntegerWidth10zeroFillToEi(i32 noundef %.1)
  %.fca.0.extract = extractvalue { i64, i8 } %17, 0
  %.fca.1.extract = extractvalue { i64, i8 } %17, 1
  %18 = getelementptr inbounds nuw i8, ptr %1, i64 124
  store i64 %.fca.0.extract, ptr %18, align 4
  %.sroa.4.0..sroa_idx = getelementptr inbounds nuw i8, ptr %1, i64 132
  store i8 %.fca.1.extract, ptr %.sroa.4.0..sroa_idx, align 4
  br label %19

19:                                               ; preds = %16, %15
  ret void
}